target datalayout = "e-m:e-p270:32:32-p271:32:32-p272:64:64-i64:64-i128:128-f80:128-n8:16:32:64-S128"
target triple = "x86_64-pc-linux-gnu"

@progname = internal global ptr null, align 8
@stderr = external global ptr, align 8
@.str.24 = private unnamed_addr constant [10 x i8] c"I/O error\00", align 1
@.str.25 = private unnamed_addr constant [16 x i8] c"%s: %s%s%s%s%s\0A\00", align 1
@.str.26 = private unnamed_addr constant [1 x i8] zeroinitializer, align 1
@.str.27 = private unnamed_addr constant [2 x i8] c"/\00", align 1
@.str.28 = private unnamed_addr constant [3 x i8] c": \00", align 1

; Function Attrs: nounwind uwtable
define internal void @close_file(ptr noundef %0, ptr noundef %1, ptr noundef %2) #0 {
  %4 = alloca ptr, align 8
  %5 = alloca ptr, align 8
  %6 = alloca ptr, align 8
  %7 = alloca ptr, align 8
  store ptr %0, ptr %4, align 8
  store ptr %1, ptr %5, align 8
  store ptr %2, ptr %6, align 8
  call void @llvm.lifetime.start.p0(i64 8, ptr %7) #13
  %8 = load ptr, ptr %4, align 8
  %9 = call i32 @ferror(ptr noundef %8) #13
  %10 = icmp ne i32 %9, 0
  br i1 %10, label %11, label %12

11:                                               ; preds = %3
  br label %23

12:                                               ; preds = %3
  %13 = load ptr, ptr %4, align 8
  %14 = call i32 @fclose(ptr noundef %13)
  %15 = icmp ne i32 %14, 0
  br i1 %15, label %16, label %20

16:                                               ; preds = %12
  %17 = call ptr @__errno_location() #16
  %18 = load i32, ptr %17, align 4
  %19 = call ptr @pg_strerror(i32 noundef %18)
  br label %21

20:                                               ; preds = %12
  br label %21

21:                                               ; preds = %20, %16
  %22 = phi ptr [ %19, %16 ], [ null, %20 ]
  br label %23

23:                                               ; preds = %21, %11
  %24 = phi ptr [ @.str.24, %11 ], [ %22, %21 ]
  store ptr %24, ptr %7, align 8
  %25 = load ptr, ptr %7, align 8
  %26 = icmp ne ptr %25, null
  br i1 %26, label %27, label %52

27:                                               ; preds = %23
  %28 = load ptr, ptr @stderr, align 8
  %29 = load ptr, ptr @progname, align 8
  %30 = load ptr, ptr %5, align 8
  %31 = icmp ne ptr %30, null
  br i1 %31, label %32, label %34

32:                                               ; preds = %27
  %33 = load ptr, ptr %5, align 8
  br label %35

34:                                               ; preds = %27
  br label %35

35:                                               ; preds = %34, %32
  %36 = phi ptr [ %33, %32 ], [ @.str.26, %34 ]
  %37 = load ptr, ptr %5, align 8
  %38 = icmp ne ptr %37, null
  %39 = select i1 %38, ptr @.str.27, ptr @.str.26
  %40 = load ptr, ptr %6, align 8
  %41 = icmp ne ptr %40, null
  br i1 %41, label %42, label %44

42:                                               ; preds = %35
  %43 = load ptr, ptr %6, align 8
  br label %45

44:                                               ; preds = %35
  br label %45

45:                                               ; preds = %44, %42
  %46 = phi ptr [ %43, %42 ], [ @.str.26, %44 ]
  %47 = load ptr, ptr %6, align 8
  %48 = icmp ne ptr %47, null
  %49 = select i1 %48, ptr @.str.28, ptr @.str.26
  %50 = load ptr, ptr %7, align 8
  %51 = call i32 (ptr, ptr, ...) @pg_fprintf(ptr noundef %28, ptr noundef @.str.25, ptr noundef %29, ptr noundef %36, ptr noundef %39, ptr noundef %46, ptr noundef %49, ptr noundef %50)
  call void @exit(i32 noundef 1) #17
  unreachable

52:                                               ; preds = %23
  call void @llvm.lifetime.end.p0(i64 8, ptr %7) #13
  ret void
}