; Function Attrs: nounwind uwtable
define internal fastcc void @close_file(ptr noundef captures(none) %0, ptr noundef %1, ptr noundef %2) unnamed_addr #0 {
  %4 = tail call i32 @ferror(ptr noundef %0) #26
  %.not = icmp eq i32 %4, 0
  br i1 %.not, label %5, label %.thread15

5:                                                ; preds = %3
  %6 = tail call i32 @fclose(ptr noundef %0)
  %.not10 = icmp eq i32 %6, 0
  br i1 %.not10, label %.thread, label %7

7:                                                ; preds = %5
  %8 = tail call ptr @__errno_location() #28
  %9 = load i32, ptr %8, align 4
  %10 = tail call ptr @pg_strerror(i32 noundef %9) #26
  %.not11 = icmp eq ptr %10, null
  br i1 %.not11, label %.thread, label %.thread15

.thread15:                                        ; preds = %3, %7
  %11 = phi ptr [ %10, %7 ], [ @.str.24, %3 ]
  %12 = load ptr, ptr @stderr, align 8
  %13 = load ptr, ptr @progname, align 8
  %.not12 = icmp eq ptr %1, null
  %14 = select i1 %.not12, ptr @.str.26, ptr %1
  %15 = select i1 %.not12, ptr @.str.26, ptr @.str.27
  %.not13 = icmp eq ptr %2, null
  %16 = select i1 %.not13, ptr @.str.26, ptr %2
  %17 = select i1 %.not13, ptr @.str.26, ptr @.str.28
  %18 = tail call i32 (ptr, ptr, ...) @pg_fprintf(ptr noundef %12, ptr noundef nonnull @.str.25, ptr noundef %13, ptr noundef nonnull %14, ptr noundef nonnull %15, ptr noundef nonnull %16, ptr noundef nonnull %17, ptr noundef nonnull %11) #26
  tail call void @exit(i32 noundef 1) #29
  unreachable

.thread:                                          ; preds = %5, %7
  ret void
}